target datalayout = "e-m:e-p270:32:32-p271:32:32-p272:64:64-i64:64-i128:128-f80:128-n8:16:32:64-S128"
target triple = "x86_64-pc-linux-gnu"

@__glewCheckFramebufferStatusEXT = external global ptr, align 8
@.str.89 = private unnamed_addr constant [27 x i8] c"FBO Incomplete: Attachment\00", align 1
@.str.90 = private unnamed_addr constant [35 x i8] c"FBO Incomplete: Missing Attachment\00", align 1
@.str.91 = private unnamed_addr constant [27 x i8] c"FBO Incomplete: Dimensions\00", align 1
@.str.92 = private unnamed_addr constant [24 x i8] c"FBO Incomplete: Formats\00", align 1
@.str.93 = private unnamed_addr constant [28 x i8] c"FBO Incomplete: Draw Buffer\00", align 1
@.str.94 = private unnamed_addr constant [28 x i8] c"FBO Incomplete: Read Buffer\00", align 1
@.str.95 = private unnamed_addr constant [20 x i8] c"Undefined FBO error\00", align 1

; Function Attrs: mustprogress uwtable
define noundef zeroext i1 @_ZN22AmbientOcclusionPlugin16checkFramebufferEv(ptr noundef nonnull align 8 dereferenceable(185) %0) #5 align 2 {
  %2 = alloca i1, align 1
  %3 = alloca ptr, align 8
  %4 = alloca i32, align 4
  store ptr %0, ptr %3, align 8
  %5 = load ptr, ptr %3, align 8
  %6 = load ptr, ptr @__glewCheckFramebufferStatusEXT, align 8
  %7 = call i32 %6(i32 noundef 36160)
  store i32 %7, ptr %4, align 4
  %8 = load i32, ptr %4, align 4
  %9 = icmp ne i32 %8, 36053
  br i1 %9, label %10, label %48

10:                                               ; preds = %1
  %11 = load i32, ptr %4, align 4
  switch i32 %11, label %42 [
    i32 36054, label %12
    i32 36055, label %17
    i32 36057, label %22
    i32 36058, label %27
    i32 36059, label %32
    i32 36060, label %37
  ]

12:                                               ; preds = %10
  %13 = load ptr, ptr %5, align 8
  %14 = getelementptr i8, ptr %13, i64 -32
  %15 = load i64, ptr %14, align 8
  %16 = getelementptr inbounds i8, ptr %5, i64 %15
  call void @_ZNK19MeshLabPluginLogger3logEN11GLLogStream6LevelsEPKc(ptr noundef nonnull align 8 dereferenceable(16) %16, i32 noundef 0, ptr noundef @.str.89)
  br label %47

17:                                               ; preds = %10
  %18 = load ptr, ptr %5, align 8
  %19 = getelementptr i8, ptr %18, i64 -32
  %20 = load i64, ptr %19, align 8
  %21 = getelementptr inbounds i8, ptr %5, i64 %20
  call void @_ZNK19MeshLabPluginLogger3logEN11GLLogStream6LevelsEPKc(ptr noundef nonnull align 8 dereferenceable(16) %21, i32 noundef 0, ptr noundef @.str.90)
  br label %47

22:                                               ; preds = %10
  %23 = load ptr, ptr %5, align 8
  %24 = getelementptr i8, ptr %23, i64 -32
  %25 = load i64, ptr %24, align 8
  %26 = getelementptr inbounds i8, ptr %5, i64 %25
  call void @_ZNK19MeshLabPluginLogger3logEN11GLLogStream6LevelsEPKc(ptr noundef nonnull align 8 dereferenceable(16) %26, i32 noundef 0, ptr noundef @.str.91)
  br label %47

27:                                               ; preds = %10
  %28 = load ptr, ptr %5, align 8
  %29 = getelementptr i8, ptr %28, i64 -32
  %30 = load i64, ptr %29, align 8
  %31 = getelementptr inbounds i8, ptr %5, i64 %30
  call void @_ZNK19MeshLabPluginLogger3logEN11GLLogStream6LevelsEPKc(ptr noundef nonnull align 8 dereferenceable(16) %31, i32 noundef 0, ptr noundef @.str.92)
  br label %47

32:                                               ; preds = %10
  %33 = load ptr, ptr %5, align 8
  %34 = getelementptr i8, ptr %33, i64 -32
  %35 = load i64, ptr %34, align 8
  %36 = getelementptr inbounds i8, ptr %5, i64 %35
  call void @_ZNK19MeshLabPluginLogger3logEN11GLLogStream6LevelsEPKc(ptr noundef nonnull align 8 dereferenceable(16) %36, i32 noundef 0, ptr noundef @.str.93)
  br label %47

37:                                               ; preds = %10
  %38 = load ptr, ptr %5, align 8
  %39 = getelementptr i8, ptr %38, i64 -32
  %40 = load i64, ptr %39, align 8
  %41 = getelementptr inbounds i8, ptr %5, i64 %40
  call void @_ZNK19MeshLabPluginLogger3logEN11GLLogStream6LevelsEPKc(ptr noundef nonnull align 8 dereferenceable(16) %41, i32 noundef 0, ptr noundef @.str.94)
  br label %47

42:                                               ; preds = %10
  %43 = load ptr, ptr %5, align 8
  %44 = getelementptr i8, ptr %43, i64 -32
  %45 = load i64, ptr %44, align 8
  %46 = getelementptr inbounds i8, ptr %5, i64 %45
  call void @_ZNK19MeshLabPluginLogger3logEN11GLLogStream6LevelsEPKc(ptr noundef nonnull align 8 dereferenceable(16) %46, i32 noundef 0, ptr noundef @.str.95)
  br label %47

47:                                               ; preds = %42, %37, %32, %27, %22, %17, %12
  store i1 false, ptr %2, align 1
  br label %49

48:                                               ; preds = %1
  store i1 true, ptr %2, align 1
  br label %49

49:                                               ; preds = %48, %47
  %50 = load i1, ptr %2, align 1
  ret i1 %50
}