; Function Attrs: mustprogress uwtable
define noundef zeroext i1 @_ZN22AmbientOcclusionPlugin16checkFramebufferEv(ptr noundef nonnull align 8 dereferenceable(185) %0) local_unnamed_addr #9 align 2 {
  %2 = load ptr, ptr @__glewCheckFramebufferStatusEXT, align 8
  %3 = tail call i32 %2(i32 noundef 36160)
  %.not = icmp eq i32 %3, 36053
  br i1 %.not, label %11, label %4

4:                                                ; preds = %1
  %5 = load ptr, ptr %0, align 8
  %6 = getelementptr i8, ptr %5, i64 -32
  %7 = load i64, ptr %6, align 8
  %8 = getelementptr inbounds i8, ptr %0, i64 %7
  %switch.tableidx = add i32 %3, -36054
  %9 = icmp ult i32 %switch.tableidx, 7
  br i1 %9, label %switch.lookup, label %.sink.split

switch.lookup:                                    ; preds = %4
  %10 = zext nneg i32 %switch.tableidx to i64
  %switch.gep = getelementptr inbounds [7 x ptr], ptr @switch.table._ZN22AmbientOcclusionPlugin16checkFramebufferEv, i64 0, i64 %10
  %switch.load = load ptr, ptr %switch.gep, align 8
  br label %.sink.split

.sink.split:                                      ; preds = %4, %switch.lookup
  %.str.89.sink = phi ptr [ %switch.load, %switch.lookup ], [ @.str.95, %4 ]
  tail call void @_ZNK19MeshLabPluginLogger3logEN11GLLogStream6LevelsEPKc(ptr noundef nonnull align 8 dereferenceable(16) %8, i32 noundef 0, ptr noundef nonnull %.str.89.sink)
  br label %11

11:                                               ; preds = %.sink.split, %1
  ret i1 %.not
}